target datalayout = "e-m:e-p270:32:32-p271:32:32-p272:64:64-i64:64-i128:128-f80:128-n8:16:32:64-S128"
target triple = "x86_64-unknown-linux-gnu"

%class.symbol = type { ptr }
%class.doc = type { ptr, %class.union_bvec }
%class.union_bvec = type { %class.buffer }
%class.buffer = type { ptr, i32, i32, [8 x %"union.std::aligned_storage<8, 8>::type"] }
%"union.std::aligned_storage<8, 8>::type" = type { [8 x i8] }
%struct.smt_params = type { %struct.preprocessor_params.base, %struct.dyn_ack_params, %struct.qi_params, %struct.theory_arith_params.base, i8, %struct.theory_array_params.base, %struct.theory_bv_params, %struct.theory_str_params.base, %struct.theory_seq_params, %struct.theory_pb_params.base, %struct.theory_datatype_params, i8, i8, i8, i8, i8, i8, i32, i8, i32, double, double, i32, i32, i32, i32, i32, i8, i32, i32, i32, i32, i32, i32, i8, i32, i8, i8, i8, i8, i8, %class.symbol, i32, i32, i8, i8, i8, i8, i32, i8, i32, i32, double, i8, double, double, i32, i8, i32, i32, double, i32, i32, i32, i32, i32, double, i8, i8, i8, %class.symbol, i8, i8, i8, i8, i8, i8, i32, i8, i8, i8, i8, i8, i8, i8, i8, i8, double, i8, %class.symbol }
%struct.preprocessor_params.base = type <{ %struct.pattern_inference_params.base, %struct.bit_blaster_params, i32, i32, i8, i8, i8, i8, i8, i8, i8, i8, i8, i8, i8, i8, i8, i8, i8, i8, i8, i8, i8 }>
%struct.pattern_inference_params.base = type <{ i8, [3 x i8], i32, i8, i8, [2 x i8], i32, i8, [3 x i8], i32, i32, i8, [3 x i8], i32, i8, i8 }>
%struct.bit_blaster_params = type { i8, i8 }
%struct.dyn_ack_params = type { i32, i8, double, i32, i32, double }
%struct.qi_params = type { %"class.std::__cxx11::basic_string", %"class.std::__cxx11::basic_string", double, double, i32, i32, i8, i32, i32, i8, i8, i32, i8, i8, i8, i8, i32, i32, i32, i8, i32, ptr }
%"class.std::__cxx11::basic_string" = type { %"struct.std::__cxx11::basic_string<char>::_Alloc_hider", i64, %union.anon }
%"struct.std::__cxx11::basic_string<char>::_Alloc_hider" = type { ptr }
%union.anon = type { i64, [8 x i8] }
%struct.theory_arith_params.base = type <{ i8, i8, [2 x i8], i32, i8, [3 x i8], i32, i8, [3 x i8], i32, i8, i8, [2 x i8], i32, i32, i8, i8, [2 x i8], i32, i32, i8, [3 x i8], i32, i32, i8, [3 x i8], double, double, i8, [3 x i8], i32, i8, i8, i8, i8, i8, [3 x i8], i32, i32, i8, [3 x i8], i32, i8, i8, i8, i8, i8, i8, [2 x i8], i32, i8, i8, [2 x i8], i32, i8, [3 x i8], i32, i8, i8, i8 }>
%struct.theory_array_params.base = type <{ i8, i8, [2 x i8], i32, i8, i8, [2 x i8], i32, i8, i8, i8, i8, i32, i8 }>
%struct.theory_bv_params = type { i32, i8, i8, i8, i8, i32, i8, i8, i8, i8, i32 }
%struct.theory_str_params.base = type <{ i8, i8, i8, i8, i8, i8, i8, i8, double, i32, i32, i32, i32, i32, i8, i8 }>
%struct.theory_seq_params = type { i8, i8, i32, i32 }
%struct.theory_pb_params.base = type <{ i32, i8 }>
%struct.theory_datatype_params = type { i32 }
%class.params_ref = type { ptr }
%"class.smt::kernel" = type { ptr }
%class.obj_ref = type { ptr, ptr }

; Function Attrs: mustprogress nounwind uwtable
define linkonce_odr hidden void @_ZN9qi_paramsD2Ev(ptr noundef nonnull align 8 dereferenceable(144) %this) unnamed_addr #5 comdat align 2 {
entry:
  %this.addr = alloca ptr, align 8
  store ptr %this, ptr %this.addr, align 8
  %this1 = load ptr, ptr %this.addr, align 8
  %m_qi_new_gen = getelementptr inbounds %struct.qi_params, ptr %this1, i32 0, i32 1
  call void @_ZNSt7__cxx1112basic_stringIcSt11char_traitsIcESaIcEED1Ev(ptr noundef nonnull align 8 dereferenceable(32) %m_qi_new_gen) #3
  %m_qi_cost = getelementptr inbounds %struct.qi_params, ptr %this1, i32 0, i32 0
  call void @_ZNSt7__cxx1112basic_stringIcSt11char_traitsIcESaIcEED1Ev(ptr noundef nonnull align 8 dereferenceable(32) %m_qi_cost) #3
  ret void
}

; Function Attrs: mustprogress nounwind uwtable
define linkonce_odr hidden noundef i32 @_ZNK6bufferIP3tbvLb0ELj8EE4sizeEv(ptr noundef nonnull align 8 dereferenceable(80) %this) #5 comdat align 2 {
entry:
  %this.addr = alloca ptr, align 8
  store ptr %this, ptr %this.addr, align 8
  %this1 = load ptr, ptr %this.addr, align 8
  %m_pos = getelementptr inbounds %class.buffer, ptr %this1, i32 0, i32 1
  %0 = load i32, ptr %m_pos, align 8
  ret i32 %0
}

; Function Attrs: mustprogress nounwind uwtable
define linkonce_odr hidden void @_ZN10smt_paramsD2Ev(ptr noundef nonnull align 8 dereferenceable(800) %this) unnamed_addr #5 comdat align 2 {
entry:
  %this.addr = alloca ptr, align 8
  store ptr %this, ptr %this.addr, align 8
  %this1 = load ptr, ptr %this.addr, align 8
  %0 = getelementptr inbounds i8, ptr %this1, i64 104
  call void @_ZN9qi_paramsD2Ev(ptr noundef nonnull align 8 dereferenceable(144) %0) #3
  ret void
}

; Function Attrs: mustprogress nounwind uwtable
define linkonce_odr hidden noundef ptr @_ZNK7obj_refI4expr11ast_managerEcvPS0_Ev(ptr noundef nonnull align 8 dereferenceable(16) %this) #5 comdat align 2 {
entry:
  %this.addr = alloca ptr, align 8
  store ptr %this, ptr %this.addr, align 8
  %this1 = load ptr, ptr %this.addr, align 8
  %m_obj = getelementptr inbounds %class.obj_ref, ptr %this1, i32 0, i32 0
  %0 = load ptr, ptr %m_obj, align 8
  ret ptr %0
}

; Function Attrs: mustprogress nounwind uwtable
define linkonce_odr hidden void @_ZN10params_refC2Ev(ptr noundef nonnull align 8 dereferenceable(8) %this) unnamed_addr #5 comdat align 2 {
entry:
  %this.addr = alloca ptr, align 8
  store ptr %this, ptr %this.addr, align 8
  %this1 = load ptr, ptr %this.addr, align 8
  %m_params = getelementptr inbounds %class.params_ref, ptr %this1, i32 0, i32 0
  store ptr null, ptr %m_params, align 8
  ret void
}

; Function Attrs: mustprogress uwtable
define linkonce_odr hidden noundef i32 @_ZNK10union_bvecI11tbv_manager3tbvE4sizeEv(ptr noundef nonnull align 8 dereferenceable(80) %this) #4 comdat align 2 {
entry:
  %this.addr = alloca ptr, align 8
  store ptr %this, ptr %this.addr, align 8
  %this1 = load ptr, ptr %this.addr, align 8
  %m_elems = getelementptr inbounds %class.union_bvec, ptr %this1, i32 0, i32 0
  %call = call noundef i32 @_ZNK6bufferIP3tbvLb0ELj8EE4sizeEv(ptr noundef nonnull align 8 dereferenceable(80) %m_elems)
  ret i32 %call
}

; Function Attrs: mustprogress nounwind uwtable
define linkonce_odr hidden noundef nonnull align 8 dereferenceable(80) ptr @_ZNK3doc3negEv(ptr noundef nonnull align 8 dereferenceable(88) %this) #5 comdat align 2 {
entry:
  %this.addr = alloca ptr, align 8
  store ptr %this, ptr %this.addr, align 8
  %this1 = load ptr, ptr %this.addr, align 8
  %m_neg = getelementptr inbounds %class.doc, ptr %this1, i32 0, i32 1
  ret ptr %m_neg
}

; Function Attrs: mustprogress uwtable
define hidden noundef zeroext i1 @_ZN11doc_manager17is_empty_completeER11ast_managerRK3doc(ptr noundef nonnull align 8 dereferenceable(1080) %this, ptr noundef nonnull align 8 dereferenceable(976) %m, ptr noundef nonnull align 8 dereferenceable(88) %src) #4 align 2 personality ptr @__gxx_personality_v0 {
entry:
  %retval = alloca i1, align 1
  %this.addr = alloca ptr, align 8
  %m.addr = alloca ptr, align 8
  %src.addr = alloca ptr, align 8
  %fp = alloca %struct.smt_params, align 8
  %ref.tmp = alloca %class.params_ref, align 8
  %exn.slot = alloca ptr, align 8
  %ehselector.slot = alloca i32, align 4
  %s = alloca %"class.smt::kernel", align 8
  %ref.tmp3 = alloca %class.params_ref, align 8
  %fml = alloca %class.obj_ref, align 8
  %res = alloca i32, align 4
  %cleanup.dest.slot = alloca i32, align 4
  store ptr %this, ptr %this.addr, align 8
  store ptr %m, ptr %m.addr, align 8
  store ptr %src, ptr %src.addr, align 8
  %this1 = load ptr, ptr %this.addr, align 8
  %0 = load ptr, ptr %src.addr, align 8
  %call = call noundef nonnull align 8 dereferenceable(80) ptr @_ZNK3doc3negEv(ptr noundef nonnull align 8 dereferenceable(88) %0)
  %call2 = call noundef i32 @_ZNK10union_bvecI11tbv_manager3tbvE4sizeEv(ptr noundef nonnull align 8 dereferenceable(80) %call)
  %cmp = icmp eq i32 %call2, 0
  br i1 %cmp, label %if.then, label %if.end

if.then:                                          ; preds = %entry
  store i1 false, ptr %retval, align 1
  br label %return

if.end:                                           ; preds = %entry
  call void @_ZN10params_refC2Ev(ptr noundef nonnull align 8 dereferenceable(8) %ref.tmp)
  invoke void @_ZN10smt_paramsC2ERK10params_ref(ptr noundef nonnull align 8 dereferenceable(800) %fp, ptr noundef nonnull align 8 dereferenceable(8) %ref.tmp)
          to label %invoke.cont unwind label %lpad

invoke.cont:                                      ; preds = %if.end
  call void @_ZN10params_refD1Ev(ptr noundef nonnull align 8 dereferenceable(8) %ref.tmp) #3
  %1 = load ptr, ptr %m.addr, align 8
  invoke void @_ZN10params_refC2Ev(ptr noundef nonnull align 8 dereferenceable(8) %ref.tmp3)
          to label %invoke.cont5 unwind label %lpad4

invoke.cont5:                                     ; preds = %invoke.cont
  invoke void @_ZN3smt6kernelC1ER11ast_managerR10smt_paramsRK10params_ref(ptr noundef nonnull align 8 dereferenceable(8) %s, ptr noundef nonnull align 8 dereferenceable(976) %1, ptr noundef nonnull align 8 dereferenceable(800) %fp, ptr noundef nonnull align 8 dereferenceable(8) %ref.tmp3)
          to label %invoke.cont7 unwind label %lpad6

invoke.cont7:                                     ; preds = %invoke.cont5
  call void @_ZN10params_refD1Ev(ptr noundef nonnull align 8 dereferenceable(8) %ref.tmp3) #3
  %2 = load ptr, ptr %m.addr, align 8
  %3 = load ptr, ptr %src.addr, align 8
  invoke void @_ZN11doc_manager10to_formulaER11ast_managerRK3doc(ptr sret(%class.obj_ref) align 8 %fml, ptr noundef nonnull align 8 dereferenceable(1080) %this1, ptr noundef nonnull align 8 dereferenceable(976) %2, ptr noundef nonnull align 8 dereferenceable(88) %3)
          to label %invoke.cont9 unwind label %lpad8

invoke.cont9:                                     ; preds = %invoke.cont7
  %call12 = invoke noundef ptr @_ZNK7obj_refI4expr11ast_managerEcvPS0_Ev(ptr noundef nonnull align 8 dereferenceable(16) %fml)
          to label %invoke.cont11 unwind label %lpad10

invoke.cont11:                                    ; preds = %invoke.cont9
  invoke void @_ZN3smt6kernel11assert_exprEP4expr(ptr noundef nonnull align 8 dereferenceable(8) %s, ptr noundef %call12)
          to label %invoke.cont13 unwind label %lpad10

invoke.cont13:                                    ; preds = %invoke.cont11
  %call15 = invoke noundef i32 @_ZN3smt6kernel5checkEjPKP4expr(ptr noundef nonnull align 8 dereferenceable(8) %s, i32 noundef 0, ptr noundef null)
          to label %invoke.cont14 unwind label %lpad10

invoke.cont14:                                    ; preds = %invoke.cont13
  store i32 %call15, ptr %res, align 4
  %4 = load i32, ptr %res, align 4
  %cmp16 = icmp eq i32 %4, 1
  br i1 %cmp16, label %if.then17, label %if.end18

if.then17:                                        ; preds = %invoke.cont14
  store i1 false, ptr %retval, align 1
  store i32 1, ptr %cleanup.dest.slot, align 4
  br label %cleanup

lpad:                                             ; preds = %if.end
  %5 = landingpad { ptr, i32 }
          cleanup
  %6 = extractvalue { ptr, i32 } %5, 0
  store ptr %6, ptr %exn.slot, align 8
  %7 = extractvalue { ptr, i32 } %5, 1
  store i32 %7, ptr %ehselector.slot, align 4
  call void @_ZN10params_refD1Ev(ptr noundef nonnull align 8 dereferenceable(8) %ref.tmp) #3
  br label %eh.resume

lpad4:                                            ; preds = %invoke.cont
  %8 = landingpad { ptr, i32 }
          cleanup
  %9 = extractvalue { ptr, i32 } %8, 0
  store ptr %9, ptr %exn.slot, align 8
  %10 = extractvalue { ptr, i32 } %8, 1
  store i32 %10, ptr %ehselector.slot, align 4
  br label %ehcleanup21

lpad6:                                            ; preds = %invoke.cont5
  %11 = landingpad { ptr, i32 }
          cleanup
  %12 = extractvalue { ptr, i32 } %11, 0
  store ptr %12, ptr %exn.slot, align 8
  %13 = extractvalue { ptr, i32 } %11, 1
  store i32 %13, ptr %ehselector.slot, align 4
  call void @_ZN10params_refD1Ev(ptr noundef nonnull align 8 dereferenceable(8) %ref.tmp3) #3
  br label %ehcleanup21

lpad8:                                            ; preds = %invoke.cont7
  %14 = landingpad { ptr, i32 }
          cleanup
  %15 = extractvalue { ptr, i32 } %14, 0
  store ptr %15, ptr %exn.slot, align 8
  %16 = extractvalue { ptr, i32 } %14, 1
  store i32 %16, ptr %ehselector.slot, align 4
  br label %ehcleanup

lpad10:                                           ; preds = %invoke.cont13, %invoke.cont11, %invoke.cont9
  %17 = landingpad { ptr, i32 }
          cleanup
  %18 = extractvalue { ptr, i32 } %17, 0
  store ptr %18, ptr %exn.slot, align 8
  %19 = extractvalue { ptr, i32 } %17, 1
  store i32 %19, ptr %ehselector.slot, align 4
  call void @_ZN7obj_refI4expr11ast_managerED2Ev(ptr noundef nonnull align 8 dereferenceable(16) %fml) #3
  br label %ehcleanup

if.end18:                                         ; preds = %invoke.cont14
  store i1 true, ptr %retval, align 1
  store i32 1, ptr %cleanup.dest.slot, align 4
  br label %cleanup

cleanup:                                          ; preds = %if.end18, %if.then17
  call void @_ZN7obj_refI4expr11ast_managerED2Ev(ptr noundef nonnull align 8 dereferenceable(16) %fml) #3
  call void @_ZN3smt6kernelD1Ev(ptr noundef nonnull align 8 dereferenceable(8) %s) #3
  call void @_ZN10smt_paramsD2Ev(ptr noundef nonnull align 8 dereferenceable(800) %fp) #3
  br label %return

ehcleanup:                                        ; preds = %lpad10, %lpad8
  call void @_ZN3smt6kernelD1Ev(ptr noundef nonnull align 8 dereferenceable(8) %s) #3
  br label %ehcleanup21

ehcleanup21:                                      ; preds = %ehcleanup, %lpad6, %lpad4
  call void @_ZN10smt_paramsD2Ev(ptr noundef nonnull align 8 dereferenceable(800) %fp) #3
  br label %eh.resume

return:                                           ; preds = %cleanup, %if.then
  %20 = load i1, ptr %retval, align 1
  ret i1 %20

eh.resume:                                        ; preds = %ehcleanup21, %lpad
  %exn = load ptr, ptr %exn.slot, align 8
  %sel = load i32, ptr %ehselector.slot, align 4
  %lpad.val = insertvalue { ptr, i32 } poison, ptr %exn, 0
  %lpad.val22 = insertvalue { ptr, i32 } %lpad.val, i32 %sel, 1
  resume { ptr, i32 } %lpad.val22
}