; Function Attrs: mustprogress uwtable
define hidden noundef zeroext i1 @_ZN11doc_manager17is_empty_completeER11ast_managerRK3doc(ptr nocapture noundef nonnull readonly align 8 dereferenceable(1080) %this, ptr noundef nonnull align 8 dereferenceable(976) %m, ptr nocapture noundef nonnull readonly align 8 dereferenceable(88) %src) local_unnamed_addr #3 align 2 personality ptr @__gxx_personality_v0 {
entry:
  %fp = alloca %struct.smt_params, align 8
  %ref.tmp = alloca %class.params_ref, align 8
  %s = alloca %"class.smt::kernel", align 8
  %ref.tmp3 = alloca %class.params_ref, align 8
  %fml = alloca %class.obj_ref, align 8
  %m_pos.i.i = getelementptr inbounds i8, ptr %src, i64 16
  %0 = load i32, ptr %m_pos.i.i, align 8
  %cmp = icmp eq i32 %0, 0
  br i1 %cmp, label %return, label %if.end

if.end:                                           ; preds = %entry
  store ptr null, ptr %ref.tmp, align 8
  invoke void @_ZN10smt_paramsC2ERK10params_ref(ptr noundef nonnull align 8 dereferenceable(800) %fp, ptr noundef nonnull align 8 dereferenceable(8) %ref.tmp)
          to label %invoke.cont unwind label %lpad

invoke.cont:                                      ; preds = %if.end
  call void @_ZN10params_refD1Ev(ptr noundef nonnull align 8 dereferenceable(8) %ref.tmp) #16
  store ptr null, ptr %ref.tmp3, align 8
  invoke void @_ZN3smt6kernelC1ER11ast_managerR10smt_paramsRK10params_ref(ptr noundef nonnull align 8 dereferenceable(8) %s, ptr noundef nonnull align 8 dereferenceable(976) %m, ptr noundef nonnull align 8 dereferenceable(800) %fp, ptr noundef nonnull align 8 dereferenceable(8) %ref.tmp3)
          to label %invoke.cont7 unwind label %lpad6

invoke.cont7:                                     ; preds = %invoke.cont
  call void @_ZN10params_refD1Ev(ptr noundef nonnull align 8 dereferenceable(8) %ref.tmp3) #16
  invoke void @_ZN11doc_manager10to_formulaER11ast_managerRK3doc(ptr nonnull sret(%class.obj_ref) align 8 %fml, ptr noundef nonnull align 8 dereferenceable(1080) %this, ptr noundef nonnull align 8 dereferenceable(976) %m, ptr noundef nonnull align 8 dereferenceable(88) %src)
          to label %invoke.cont9 unwind label %lpad8

invoke.cont9:                                     ; preds = %invoke.cont7
  %1 = load ptr, ptr %fml, align 8
  invoke void @_ZN3smt6kernel11assert_exprEP4expr(ptr noundef nonnull align 8 dereferenceable(8) %s, ptr noundef %1)
          to label %invoke.cont13 unwind label %lpad10

invoke.cont13:                                    ; preds = %invoke.cont9
  %call15 = invoke noundef i32 @_ZN3smt6kernel5checkEjPKP4expr(ptr noundef nonnull align 8 dereferenceable(8) %s, i32 noundef 0, ptr noundef null)
          to label %invoke.cont14 unwind label %lpad10

invoke.cont14:                                    ; preds = %invoke.cont13
  %cmp16 = icmp ne i32 %call15, 1
  %2 = load ptr, ptr %fml, align 8
  %tobool.not.i.i = icmp eq ptr %2, null
  br i1 %tobool.not.i.i, label %_ZN7obj_refI4expr11ast_managerED2Ev.exit, label %if.then.i.i.i

if.then.i.i.i:                                    ; preds = %invoke.cont14
  %m_manager.i.i = getelementptr inbounds i8, ptr %fml, i64 8
  %3 = load ptr, ptr %m_manager.i.i, align 8
  %m_ref_count.i.i.i.i = getelementptr inbounds i8, ptr %2, i64 8
  %4 = load i32, ptr %m_ref_count.i.i.i.i, align 4
  %dec.i.i.i.i = add i32 %4, -1
  store i32 %dec.i.i.i.i, ptr %m_ref_count.i.i.i.i, align 4
  %cmp.i.i.i = icmp eq i32 %dec.i.i.i.i, 0
  br i1 %cmp.i.i.i, label %if.then2.i.i.i, label %_ZN7obj_refI4expr11ast_managerED2Ev.exit

if.then2.i.i.i:                                   ; preds = %if.then.i.i.i
  invoke void @_ZN11ast_manager11delete_nodeEP3ast(ptr noundef nonnull align 8 dereferenceable(976) %3, ptr noundef nonnull %2)
          to label %_ZN7obj_refI4expr11ast_managerED2Ev.exit unwind label %terminate.lpad.i

terminate.lpad.i:                                 ; preds = %if.then2.i.i.i
  %5 = landingpad { ptr, i32 }
          catch ptr null
  %6 = extractvalue { ptr, i32 } %5, 0
  call void @__clang_call_terminate(ptr %6) #17
  unreachable

_ZN7obj_refI4expr11ast_managerED2Ev.exit:         ; preds = %invoke.cont14, %if.then.i.i.i, %if.then2.i.i.i
  call void @_ZN3smt6kernelD1Ev(ptr noundef nonnull align 8 dereferenceable(8) %s) #16
  %7 = getelementptr inbounds i8, ptr %fp, i64 104
  %m_qi_new_gen.i.i = getelementptr inbounds i8, ptr %fp, i64 136
  call void @_ZNSt7__cxx1112basic_stringIcSt11char_traitsIcESaIcEED1Ev(ptr noundef nonnull align 8 dereferenceable(32) %m_qi_new_gen.i.i) #16
  call void @_ZNSt7__cxx1112basic_stringIcSt11char_traitsIcESaIcEED1Ev(ptr noundef nonnull align 8 dereferenceable(32) %7) #16
  br label %return

lpad:                                             ; preds = %if.end
  %8 = landingpad { ptr, i32 }
          cleanup
  call void @_ZN10params_refD1Ev(ptr noundef nonnull align 8 dereferenceable(8) %ref.tmp) #16
  br label %eh.resume

lpad6:                                            ; preds = %invoke.cont
  %9 = landingpad { ptr, i32 }
          cleanup
  call void @_ZN10params_refD1Ev(ptr noundef nonnull align 8 dereferenceable(8) %ref.tmp3) #16
  br label %ehcleanup21

lpad8:                                            ; preds = %invoke.cont7
  %10 = landingpad { ptr, i32 }
          cleanup
  br label %ehcleanup

lpad10:                                           ; preds = %invoke.cont13, %invoke.cont9
  %11 = landingpad { ptr, i32 }
          cleanup
  call void @_ZN7obj_refI4expr11ast_managerED2Ev(ptr noundef nonnull align 8 dereferenceable(16) %fml) #16
  br label %ehcleanup

ehcleanup:                                        ; preds = %lpad10, %lpad8
  %.pn = phi { ptr, i32 } [ %11, %lpad10 ], [ %10, %lpad8 ]
  call void @_ZN3smt6kernelD1Ev(ptr noundef nonnull align 8 dereferenceable(8) %s) #16
  br label %ehcleanup21

ehcleanup21:                                      ; preds = %ehcleanup, %lpad6
  %.pn.pn = phi { ptr, i32 } [ %.pn, %ehcleanup ], [ %9, %lpad6 ]
  %12 = getelementptr inbounds i8, ptr %fp, i64 104
  %m_qi_new_gen.i.i6 = getelementptr inbounds i8, ptr %fp, i64 136
  call void @_ZNSt7__cxx1112basic_stringIcSt11char_traitsIcESaIcEED1Ev(ptr noundef nonnull align 8 dereferenceable(32) %m_qi_new_gen.i.i6) #16
  call void @_ZNSt7__cxx1112basic_stringIcSt11char_traitsIcESaIcEED1Ev(ptr noundef nonnull align 8 dereferenceable(32) %12) #16
  br label %eh.resume

return:                                           ; preds = %entry, %_ZN7obj_refI4expr11ast_managerED2Ev.exit
  %retval.1 = phi i1 [ %cmp16, %_ZN7obj_refI4expr11ast_managerED2Ev.exit ], [ false, %entry ]
  ret i1 %retval.1

eh.resume:                                        ; preds = %ehcleanup21, %lpad
  %.pn.pn.pn = phi { ptr, i32 } [ %.pn.pn, %ehcleanup21 ], [ %8, %lpad ]
  resume { ptr, i32 } %.pn.pn.pn
}